target datalayout = "e-m:e-p270:32:32-p271:32:32-p272:64:64-i64:64-i128:128-f80:128-n8:16:32:64-S128"
target triple = "x86_64-pc-linux-gnu"

%"class.llvm::SmallVectorBase" = type { ptr, i32, i32 }
%"class.llvm::SmallVector.26" = type { %"class.llvm::SmallVectorImpl.17", %"struct.llvm::SmallVectorStorage.27" }
%"class.llvm::SmallVectorImpl.17" = type { %"class.llvm::SmallVectorTemplateBase.18" }
%"class.llvm::SmallVectorTemplateBase.18" = type { %"class.llvm::SmallVectorTemplateCommon.19" }
%"class.llvm::SmallVectorTemplateCommon.19" = type { %"class.llvm::SmallVectorBase" }
%"struct.llvm::SmallVectorStorage.27" = type { [144 x i8] }
%"class.llvm::DWARFAcceleratorTable::Entry" = type { ptr, %"class.llvm::SmallVector.26" }
%"class.__gnu_cxx::__normal_iterator" = type { ptr }
%"struct.llvm::DWARFDebugNames::Abbrev" = type { i64, i32, i16, %"class.std::vector" }
%"class.std::vector" = type { %"struct.std::_Vector_base" }
%"struct.std::_Vector_base" = type { %"struct.std::_Vector_base<llvm::DWARFDebugNames::AttributeEncoding, std::allocator<llvm::DWARFDebugNames::AttributeEncoding>>::_Vector_impl" }
%"struct.std::_Vector_base<llvm::DWARFDebugNames::AttributeEncoding, std::allocator<llvm::DWARFDebugNames::AttributeEncoding>>::_Vector_impl" = type { %"struct.std::_Vector_base<llvm::DWARFDebugNames::AttributeEncoding, std::allocator<llvm::DWARFDebugNames::AttributeEncoding>>::_Vector_impl_data" }
%"struct.std::_Vector_base<llvm::DWARFDebugNames::AttributeEncoding, std::allocator<llvm::DWARFDebugNames::AttributeEncoding>>::_Vector_impl_data" = type { ptr, ptr, ptr }
%"struct.llvm::DWARFDebugNames::AttributeEncoding" = type <{ i32, i16, [2 x i8] }>
%"class.llvm::DWARFDebugNames::Entry" = type { %"class.llvm::DWARFAcceleratorTable::Entry", ptr, ptr }

; Function Attrs: mustprogress nounwind uwtable
define linkonce_odr hidden void @_ZN4llvm25SmallVectorTemplateCommonINS_14DWARFFormValueEvEC2Em(ptr noundef nonnull align 8 dereferenceable(16) %0, i64 noundef %1) unnamed_addr #0 comdat align 2 {
  %3 = alloca ptr, align 8
  %4 = alloca i64, align 8
  store ptr %0, ptr %3, align 8
  store i64 %1, ptr %4, align 8
  %5 = load ptr, ptr %3, align 8
  %6 = call noundef ptr @_ZNK4llvm25SmallVectorTemplateCommonINS_14DWARFFormValueEvE10getFirstElEv(ptr noundef nonnull align 8 dereferenceable(16) %5)
  %7 = load i64, ptr %4, align 8
  call void @_ZN4llvm15SmallVectorBaseIjEC2EPvm(ptr noundef nonnull align 8 dereferenceable(16) %5, ptr noundef %6, i64 noundef %7)
  ret void
}

; Function Attrs: mustprogress nounwind uwtable
define linkonce_odr hidden noundef ptr @_ZNK4llvm25SmallVectorTemplateCommonINS_14DWARFFormValueEvE10getFirstElEv(ptr noundef nonnull align 8 dereferenceable(16) %0) #0 comdat align 2 {
  %2 = alloca ptr, align 8
  store ptr %0, ptr %2, align 8
  %3 = load ptr, ptr %2, align 8
  %4 = getelementptr inbounds i8, ptr %3, i64 16
  ret ptr %4
}

; Function Attrs: mustprogress nounwind uwtable
define linkonce_odr hidden void @_ZN4llvm23SmallVectorTemplateBaseINS_14DWARFFormValueELb1EEC2Em(ptr noundef nonnull align 8 dereferenceable(16) %0, i64 noundef %1) unnamed_addr #0 comdat align 2 {
  %3 = alloca ptr, align 8
  %4 = alloca i64, align 8
  store ptr %0, ptr %3, align 8
  store i64 %1, ptr %4, align 8
  %5 = load ptr, ptr %3, align 8
  %6 = load i64, ptr %4, align 8
  call void @_ZN4llvm25SmallVectorTemplateCommonINS_14DWARFFormValueEvEC2Em(ptr noundef nonnull align 8 dereferenceable(16) %5, i64 noundef %6)
  ret void
}

; Function Attrs: mustprogress nounwind uwtable
define linkonce_odr hidden void @_ZN4llvm25SmallVectorTemplateCommonINS_14DWARFFormValueEvE8grow_podEmm(ptr noundef nonnull align 8 dereferenceable(16) %0, i64 noundef %1, i64 noundef %2) #0 comdat align 2 {
  %4 = alloca ptr, align 8
  %5 = alloca i64, align 8
  %6 = alloca i64, align 8
  store ptr %0, ptr %4, align 8
  store i64 %1, ptr %5, align 8
  store i64 %2, ptr %6, align 8
  %7 = load ptr, ptr %4, align 8
  %8 = call noundef ptr @_ZNK4llvm25SmallVectorTemplateCommonINS_14DWARFFormValueEvE10getFirstElEv(ptr noundef nonnull align 8 dereferenceable(16) %7)
  %9 = load i64, ptr %5, align 8
  %10 = load i64, ptr %6, align 8
  call void @_ZN4llvm15SmallVectorBaseIjE8grow_podEPvmm(ptr noundef nonnull align 8 dereferenceable(16) %7, ptr noundef %8, i64 noundef %9, i64 noundef %10)
  ret void
}

; Function Attrs: mustprogress nounwind uwtable
define linkonce_odr hidden void @_ZN4llvm15SmallVectorImplINS_14DWARFFormValueEEC2Ej(ptr noundef nonnull align 8 dereferenceable(16) %0, i32 noundef %1) unnamed_addr #0 comdat align 2 {
  %3 = alloca ptr, align 8
  %4 = alloca i32, align 4
  store ptr %0, ptr %3, align 8
  store i32 %1, ptr %4, align 4
  %5 = load ptr, ptr %3, align 8
  %6 = load i32, ptr %4, align 4
  %7 = zext i32 %6 to i64
  call void @_ZN4llvm23SmallVectorTemplateBaseINS_14DWARFFormValueELb1EEC2Em(ptr noundef nonnull align 8 dereferenceable(16) %5, i64 noundef %7)
  ret void
}

; Function Attrs: mustprogress nounwind uwtable
define linkonce_odr hidden noundef nonnull align 8 dereferenceable(8) ptr @_ZNK9__gnu_cxx17__normal_iteratorIPKN4llvm15DWARFDebugNames17AttributeEncodingESt6vectorIS3_SaIS3_EEE4baseEv(ptr noundef nonnull align 8 dereferenceable(8) %0) #0 comdat align 2 {
  %2 = alloca ptr, align 8
  store ptr %0, ptr %2, align 8
  %3 = load ptr, ptr %2, align 8
  %4 = getelementptr inbounds nuw %"class.__gnu_cxx::__normal_iterator", ptr %3, i32 0, i32 0
  ret ptr %4
}

; Function Attrs: mustprogress nounwind uwtable
define linkonce_odr hidden void @_ZN9__gnu_cxx17__normal_iteratorIPKN4llvm15DWARFDebugNames17AttributeEncodingESt6vectorIS3_SaIS3_EEEC2ERKS5_(ptr noundef nonnull align 8 dereferenceable(8) %0, ptr noundef nonnull align 8 dereferenceable(8) %1) unnamed_addr #0 comdat align 2 {
  %3 = alloca ptr, align 8
  %4 = alloca ptr, align 8
  store ptr %0, ptr %3, align 8
  store ptr %1, ptr %4, align 8
  %5 = load ptr, ptr %3, align 8
  %6 = getelementptr inbounds nuw %"class.__gnu_cxx::__normal_iterator", ptr %5, i32 0, i32 0
  %7 = load ptr, ptr %4, align 8
  %8 = load ptr, ptr %7, align 8
  store ptr %8, ptr %6, align 8
  ret void
}

; Function Attrs: mustprogress nounwind uwtable
define linkonce_odr hidden void @_ZN4llvm23SmallVectorTemplateBaseINS_14DWARFFormValueELb1EE4growEm(ptr noundef nonnull align 8 dereferenceable(16) %0, i64 noundef %1) #0 comdat align 2 {
  %3 = alloca ptr, align 8
  %4 = alloca i64, align 8
  store ptr %0, ptr %3, align 8
  store i64 %1, ptr %4, align 8
  %5 = load ptr, ptr %3, align 8
  %6 = load i64, ptr %4, align 8
  call void @_ZN4llvm25SmallVectorTemplateCommonINS_14DWARFFormValueEvE8grow_podEmm(ptr noundef nonnull align 8 dereferenceable(16) %5, i64 noundef %6, i64 noundef 48)
  ret void
}

; Function Attrs: mustprogress nounwind uwtable
define linkonce_odr hidden void @_ZN4llvm11SmallVectorINS_14DWARFFormValueELj3EEC2Ev(ptr noundef nonnull align 8 dereferenceable(160) %0) unnamed_addr #0 comdat align 2 {
  %2 = alloca ptr, align 8
  store ptr %0, ptr %2, align 8
  %3 = load ptr, ptr %2, align 8
  call void @_ZN4llvm15SmallVectorImplINS_14DWARFFormValueEEC2Ej(ptr noundef nonnull align 8 dereferenceable(16) %3, i32 noundef 3)
  ret void
}

; Function Attrs: mustprogress nounwind uwtable
define linkonce_odr hidden noundef nonnull align 8 dereferenceable(8) ptr @_ZN9__gnu_cxx17__normal_iteratorIPKN4llvm15DWARFDebugNames17AttributeEncodingESt6vectorIS3_SaIS3_EEEppEv(ptr noundef nonnull align 8 dereferenceable(8) %0) #0 comdat align 2 {
  %2 = alloca ptr, align 8
  store ptr %0, ptr %2, align 8
  %3 = load ptr, ptr %2, align 8
  %4 = getelementptr inbounds nuw %"class.__gnu_cxx::__normal_iterator", ptr %3, i32 0, i32 0
  %5 = load ptr, ptr %4, align 8
  %6 = getelementptr inbounds %"struct.llvm::DWARFDebugNames::AttributeEncoding", ptr %5, i32 1
  store ptr %6, ptr %4, align 8
  ret ptr %3
}

; Function Attrs: mustprogress nounwind uwtable
define linkonce_odr hidden noundef nonnull align 4 dereferenceable(6) ptr @_ZNK9__gnu_cxx17__normal_iteratorIPKN4llvm15DWARFDebugNames17AttributeEncodingESt6vectorIS3_SaIS3_EEEdeEv(ptr noundef nonnull align 8 dereferenceable(8) %0) #0 comdat align 2 {
  %2 = alloca ptr, align 8
  store ptr %0, ptr %2, align 8
  %3 = load ptr, ptr %2, align 8
  %4 = getelementptr inbounds nuw %"class.__gnu_cxx::__normal_iterator", ptr %3, i32 0, i32 0
  %5 = load ptr, ptr %4, align 8
  ret ptr %5
}

; Function Attrs: mustprogress nounwind uwtable
define linkonce_odr noundef zeroext i1 @_ZN9__gnu_cxxneIPKN4llvm15DWARFDebugNames17AttributeEncodingESt6vectorIS3_SaIS3_EEEEbRKNS_17__normal_iteratorIT_T0_EESE_(ptr noundef nonnull align 8 dereferenceable(8) %0, ptr noundef nonnull align 8 dereferenceable(8) %1) #0 comdat {
  %3 = alloca ptr, align 8
  %4 = alloca ptr, align 8
  store ptr %0, ptr %3, align 8
  store ptr %1, ptr %4, align 8
  %5 = load ptr, ptr %3, align 8
  %6 = call noundef nonnull align 8 dereferenceable(8) ptr @_ZNK9__gnu_cxx17__normal_iteratorIPKN4llvm15DWARFDebugNames17AttributeEncodingESt6vectorIS3_SaIS3_EEE4baseEv(ptr noundef nonnull align 8 dereferenceable(8) %5) #13
  %7 = load ptr, ptr %6, align 8
  %8 = load ptr, ptr %4, align 8
  %9 = call noundef nonnull align 8 dereferenceable(8) ptr @_ZNK9__gnu_cxx17__normal_iteratorIPKN4llvm15DWARFDebugNames17AttributeEncodingESt6vectorIS3_SaIS3_EEE4baseEv(ptr noundef nonnull align 8 dereferenceable(8) %8) #13
  %10 = load ptr, ptr %9, align 8
  %11 = icmp ne ptr %7, %10
  ret i1 %11
}

; Function Attrs: mustprogress nounwind uwtable
define linkonce_odr hidden ptr @_ZNKSt6vectorIN4llvm15DWARFDebugNames17AttributeEncodingESaIS2_EE3endEv(ptr noundef nonnull align 8 dereferenceable(24) %0) #0 comdat align 2 {
  %2 = alloca %"class.__gnu_cxx::__normal_iterator", align 8
  %3 = alloca ptr, align 8
  store ptr %0, ptr %3, align 8
  %4 = load ptr, ptr %3, align 8
  %5 = getelementptr inbounds nuw %"struct.std::_Vector_base", ptr %4, i32 0, i32 0
  %6 = getelementptr inbounds nuw %"struct.std::_Vector_base<llvm::DWARFDebugNames::AttributeEncoding, std::allocator<llvm::DWARFDebugNames::AttributeEncoding>>::_Vector_impl_data", ptr %5, i32 0, i32 1
  call void @_ZN9__gnu_cxx17__normal_iteratorIPKN4llvm15DWARFDebugNames17AttributeEncodingESt6vectorIS3_SaIS3_EEEC2ERKS5_(ptr noundef nonnull align 8 dereferenceable(8) %2, ptr noundef nonnull align 8 dereferenceable(8) %6) #13
  %7 = getelementptr inbounds nuw %"class.__gnu_cxx::__normal_iterator", ptr %2, i32 0, i32 0
  %8 = load ptr, ptr %7, align 8
  ret ptr %8
}

; Function Attrs: mustprogress nounwind uwtable
define linkonce_odr hidden ptr @_ZNKSt6vectorIN4llvm15DWARFDebugNames17AttributeEncodingESaIS2_EE5beginEv(ptr noundef nonnull align 8 dereferenceable(24) %0) #0 comdat align 2 {
  %2 = alloca %"class.__gnu_cxx::__normal_iterator", align 8
  %3 = alloca ptr, align 8
  store ptr %0, ptr %3, align 8
  %4 = load ptr, ptr %3, align 8
  %5 = getelementptr inbounds nuw %"struct.std::_Vector_base", ptr %4, i32 0, i32 0
  %6 = getelementptr inbounds nuw %"struct.std::_Vector_base<llvm::DWARFDebugNames::AttributeEncoding, std::allocator<llvm::DWARFDebugNames::AttributeEncoding>>::_Vector_impl_data", ptr %5, i32 0, i32 0
  call void @_ZN9__gnu_cxx17__normal_iteratorIPKN4llvm15DWARFDebugNames17AttributeEncodingESt6vectorIS3_SaIS3_EEEC2ERKS5_(ptr noundef nonnull align 8 dereferenceable(8) %2, ptr noundef nonnull align 8 dereferenceable(8) %6) #13
  %7 = getelementptr inbounds nuw %"class.__gnu_cxx::__normal_iterator", ptr %2, i32 0, i32 0
  %8 = load ptr, ptr %7, align 8
  ret ptr %8
}

; Function Attrs: mustprogress nounwind uwtable
define linkonce_odr hidden void @_ZN4llvm15SmallVectorImplINS_14DWARFFormValueEE7reserveEm(ptr noundef nonnull align 8 dereferenceable(16) %0, i64 noundef %1) #0 comdat align 2 {
  %3 = alloca ptr, align 8
  %4 = alloca i64, align 8
  store ptr %0, ptr %3, align 8
  store i64 %1, ptr %4, align 8
  %5 = load ptr, ptr %3, align 8
  %6 = call noundef i64 @_ZNK4llvm15SmallVectorBaseIjE8capacityEv(ptr noundef nonnull align 8 dereferenceable(16) %5)
  %7 = load i64, ptr %4, align 8
  %8 = icmp ult i64 %6, %7
  br i1 %8, label %9, label %11

9:                                                ; preds = %2
  %10 = load i64, ptr %4, align 8
  call void @_ZN4llvm23SmallVectorTemplateBaseINS_14DWARFFormValueELb1EE4growEm(ptr noundef nonnull align 8 dereferenceable(16) %5, i64 noundef %10)
  br label %11

11:                                               ; preds = %9, %2
  ret void
}

; Function Attrs: mustprogress nounwind uwtable
define linkonce_odr hidden noundef i64 @_ZNKSt6vectorIN4llvm15DWARFDebugNames17AttributeEncodingESaIS2_EE4sizeEv(ptr noundef nonnull align 8 dereferenceable(24) %0) #0 comdat align 2 {
  %2 = alloca ptr, align 8
  store ptr %0, ptr %2, align 8
  %3 = load ptr, ptr %2, align 8
  %4 = getelementptr inbounds nuw %"struct.std::_Vector_base", ptr %3, i32 0, i32 0
  %5 = getelementptr inbounds nuw %"struct.std::_Vector_base<llvm::DWARFDebugNames::AttributeEncoding, std::allocator<llvm::DWARFDebugNames::AttributeEncoding>>::_Vector_impl_data", ptr %4, i32 0, i32 1
  %6 = load ptr, ptr %5, align 8
  %7 = getelementptr inbounds nuw %"struct.std::_Vector_base", ptr %3, i32 0, i32 0
  %8 = getelementptr inbounds nuw %"struct.std::_Vector_base<llvm::DWARFDebugNames::AttributeEncoding, std::allocator<llvm::DWARFDebugNames::AttributeEncoding>>::_Vector_impl_data", ptr %7, i32 0, i32 0
  %9 = load ptr, ptr %8, align 8
  %10 = ptrtoint ptr %6 to i64
  %11 = ptrtoint ptr %9 to i64
  %12 = sub i64 %10, %11
  %13 = sdiv exact i64 %12, 8
  ret i64 %13
}

; Function Attrs: mustprogress nounwind uwtable
define linkonce_odr hidden void @_ZN4llvm21DWARFAcceleratorTable5EntryC2Ev(ptr noundef nonnull align 8 dereferenceable(168) %0) unnamed_addr #0 comdat align 2 {
  %2 = alloca ptr, align 8
  store ptr %0, ptr %2, align 8
  %3 = load ptr, ptr %2, align 8
  store ptr getelementptr inbounds inrange(-16, 32) ({ [6 x ptr] }, ptr @_ZTVN4llvm21DWARFAcceleratorTable5EntryE, i32 0, i32 0, i32 2), ptr %3, align 8
  %4 = getelementptr inbounds nuw %"class.llvm::DWARFAcceleratorTable::Entry", ptr %3, i32 0, i32 1
  call void @_ZN4llvm11SmallVectorINS_14DWARFFormValueELj3EEC2Ev(ptr noundef nonnull align 8 dereferenceable(160) %4)
  ret void
}

; Function Attrs: mustprogress nounwind uwtable
define dso_local void @_ZN4llvm15DWARFDebugNames5EntryC2ERKNS0_9NameIndexERKNS0_6AbbrevE(ptr noundef nonnull align 8 dereferenceable(184) %0, ptr noundef nonnull align 8 dereferenceable(160) %1, ptr noundef nonnull align 8 dereferenceable(40) %2) unnamed_addr #0 align 2 {
  %4 = alloca ptr, align 8
  %5 = alloca ptr, align 8
  %6 = alloca ptr, align 8
  %7 = alloca ptr, align 8
  %8 = alloca %"class.__gnu_cxx::__normal_iterator", align 8
  %9 = alloca %"class.__gnu_cxx::__normal_iterator", align 8
  %10 = alloca ptr, align 8
  store ptr %0, ptr %4, align 8
  store ptr %1, ptr %5, align 8
  store ptr %2, ptr %6, align 8
  %11 = load ptr, ptr %4, align 8
  call void @_ZN4llvm21DWARFAcceleratorTable5EntryC2Ev(ptr noundef nonnull align 8 dereferenceable(168) %11)
  store ptr getelementptr inbounds inrange(-16, 32) ({ [6 x ptr] }, ptr @_ZTVN4llvm15DWARFDebugNames5EntryE, i32 0, i32 0, i32 2), ptr %11, align 8
  %12 = getelementptr inbounds nuw %"class.llvm::DWARFDebugNames::Entry", ptr %11, i32 0, i32 1
  %13 = load ptr, ptr %5, align 8
  store ptr %13, ptr %12, align 8
  %14 = getelementptr inbounds nuw %"class.llvm::DWARFDebugNames::Entry", ptr %11, i32 0, i32 2
  %15 = load ptr, ptr %6, align 8
  store ptr %15, ptr %14, align 8
  %16 = getelementptr inbounds nuw %"class.llvm::DWARFAcceleratorTable::Entry", ptr %11, i32 0, i32 1
  %17 = load ptr, ptr %6, align 8
  %18 = getelementptr inbounds nuw %"struct.llvm::DWARFDebugNames::Abbrev", ptr %17, i32 0, i32 3
  %19 = call noundef i64 @_ZNKSt6vectorIN4llvm15DWARFDebugNames17AttributeEncodingESaIS2_EE4sizeEv(ptr noundef nonnull align 8 dereferenceable(24) %18) #13
  call void @_ZN4llvm15SmallVectorImplINS_14DWARFFormValueEE7reserveEm(ptr noundef nonnull align 8 dereferenceable(16) %16, i64 noundef %19)
  %20 = load ptr, ptr %6, align 8
  %21 = getelementptr inbounds nuw %"struct.llvm::DWARFDebugNames::Abbrev", ptr %20, i32 0, i32 3
  store ptr %21, ptr %7, align 8
  %22 = load ptr, ptr %7, align 8
  %23 = call ptr @_ZNKSt6vectorIN4llvm15DWARFDebugNames17AttributeEncodingESaIS2_EE5beginEv(ptr noundef nonnull align 8 dereferenceable(24) %22) #13
  %24 = getelementptr inbounds nuw %"class.__gnu_cxx::__normal_iterator", ptr %8, i32 0, i32 0
  store ptr %23, ptr %24, align 8
  %25 = load ptr, ptr %7, align 8
  %26 = call ptr @_ZNKSt6vectorIN4llvm15DWARFDebugNames17AttributeEncodingESaIS2_EE3endEv(ptr noundef nonnull align 8 dereferenceable(24) %25) #13
  %27 = getelementptr inbounds nuw %"class.__gnu_cxx::__normal_iterator", ptr %9, i32 0, i32 0
  store ptr %26, ptr %27, align 8
  br label %28

28:                                               ; preds = %36, %3
  %29 = call noundef zeroext i1 @_ZN9__gnu_cxxneIPKN4llvm15DWARFDebugNames17AttributeEncodingESt6vectorIS3_SaIS3_EEEEbRKNS_17__normal_iteratorIT_T0_EESE_(ptr noundef nonnull align 8 dereferenceable(8) %8, ptr noundef nonnull align 8 dereferenceable(8) %9) #13
  br i1 %29, label %30, label %38

30:                                               ; preds = %28
  %31 = call noundef nonnull align 4 dereferenceable(6) ptr @_ZNK9__gnu_cxx17__normal_iteratorIPKN4llvm15DWARFDebugNames17AttributeEncodingESt6vectorIS3_SaIS3_EEEdeEv(ptr noundef nonnull align 8 dereferenceable(8) %8) #13
  store ptr %31, ptr %10, align 8
  %32 = getelementptr inbounds nuw %"class.llvm::DWARFAcceleratorTable::Entry", ptr %11, i32 0, i32 1
  %33 = load ptr, ptr %10, align 8
  %34 = getelementptr inbounds nuw %"struct.llvm::DWARFDebugNames::AttributeEncoding", ptr %33, i32 0, i32 1
  %35 = call noundef nonnull align 8 dereferenceable(48) ptr @_ZN4llvm15SmallVectorImplINS_14DWARFFormValueEE12emplace_backIJRKNS_5dwarf4FormEEEERS1_DpOT_(ptr noundef nonnull align 8 dereferenceable(16) %32, ptr noundef nonnull align 2 dereferenceable(2) %34)
  br label %36

36:                                               ; preds = %30
  %37 = call noundef nonnull align 8 dereferenceable(8) ptr @_ZN9__gnu_cxx17__normal_iteratorIPKN4llvm15DWARFDebugNames17AttributeEncodingESt6vectorIS3_SaIS3_EEEppEv(ptr noundef nonnull align 8 dereferenceable(8) %8) #13
  br label %28

38:                                               ; preds = %28
  ret void
}