; Function Attrs: mustprogress nounwind uwtable
define dso_local void @_ZN4llvm15DWARFDebugNames5EntryC2ERKNS0_9NameIndexERKNS0_6AbbrevE(ptr noundef nonnull align 8 dereferenceable(184) initializes((0, 8)) %0, ptr noundef nonnull align 8 dereferenceable(160) %1, ptr noundef nonnull align 8 dereferenceable(40) %2) unnamed_addr #3 align 2 {
  store ptr getelementptr inbounds nuw inrange(-16, 32) (i8, ptr @_ZTVN4llvm21DWARFAcceleratorTable5EntryE, i64 16), ptr %0, align 8
  %4 = getelementptr inbounds nuw i8, ptr %0, i64 8
  %5 = getelementptr inbounds nuw i8, ptr %0, i64 24
  tail call void @_ZN4llvm15SmallVectorBaseIjEC2EPvm(ptr noundef nonnull align 8 dereferenceable(160) %4, ptr noundef nonnull %5, i64 noundef 3) #27
  store ptr getelementptr inbounds nuw inrange(-16, 32) (i8, ptr @_ZTVN4llvm15DWARFDebugNames5EntryE, i64 16), ptr %0, align 8
  %6 = getelementptr inbounds nuw i8, ptr %0, i64 168
  store ptr %1, ptr %6, align 8
  %7 = getelementptr inbounds nuw i8, ptr %0, i64 176
  store ptr %2, ptr %7, align 8
  %8 = getelementptr inbounds nuw i8, ptr %2, i64 16
  %9 = getelementptr inbounds nuw i8, ptr %2, i64 24
  %10 = load ptr, ptr %9, align 8
  %11 = load ptr, ptr %8, align 8
  %12 = ptrtoint ptr %10 to i64
  %13 = ptrtoint ptr %11 to i64
  %14 = sub i64 %12, %13
  %15 = ashr exact i64 %14, 3
  %16 = tail call noundef i64 @_ZNK4llvm15SmallVectorBaseIjE8capacityEv(ptr noundef nonnull align 8 dereferenceable(16) %4) #27
  %17 = icmp ult i64 %16, %15
  br i1 %17, label %18, label %_ZN4llvm15SmallVectorImplINS_14DWARFFormValueEE7reserveEm.exit

18:                                               ; preds = %3
  tail call void @_ZN4llvm15SmallVectorBaseIjE8grow_podEPvmm(ptr noundef nonnull align 8 dereferenceable(16) %4, ptr noundef nonnull %5, i64 noundef %15, i64 noundef 48) #27
  br label %_ZN4llvm15SmallVectorImplINS_14DWARFFormValueEE7reserveEm.exit

_ZN4llvm15SmallVectorImplINS_14DWARFFormValueEE7reserveEm.exit: ; preds = %3, %18
  %19 = load ptr, ptr %8, align 8
  %20 = load ptr, ptr %9, align 8
  %.not11 = icmp eq ptr %19, %20
  br i1 %.not11, label %._crit_edge, label %.lr.ph

.lr.ph:                                           ; preds = %_ZN4llvm15SmallVectorImplINS_14DWARFFormValueEE7reserveEm.exit, %.lr.ph
  %.sroa.08.012 = phi ptr [ %23, %.lr.ph ], [ %19, %_ZN4llvm15SmallVectorImplINS_14DWARFFormValueEE7reserveEm.exit ]
  %21 = getelementptr inbounds nuw i8, ptr %.sroa.08.012, i64 4
  %22 = tail call noundef nonnull align 8 dereferenceable(48) ptr @_ZN4llvm15SmallVectorImplINS_14DWARFFormValueEE12emplace_backIJRKNS_5dwarf4FormEEEERS1_DpOT_(ptr noundef nonnull align 8 dereferenceable(16) %4, ptr noundef nonnull align 2 dereferenceable(2) %21)
  %23 = getelementptr inbounds nuw i8, ptr %.sroa.08.012, i64 8
  %.not = icmp eq ptr %23, %20
  br i1 %.not, label %._crit_edge, label %.lr.ph

._crit_edge:                                      ; preds = %.lr.ph, %_ZN4llvm15SmallVectorImplINS_14DWARFFormValueEE7reserveEm.exit
  ret void
}